target datalayout = "e-m:e-p270:32:32-p271:32:32-p272:64:64-i64:64-i128:128-f80:128-n8:16:32:64-S128"
target triple = "x86_64-pc-linux-gnu"

%struct._object = type { %union.anon, ptr }
%union.anon = type { i64 }
%struct.ast_state = type { %struct._PyOnceFlag, i32, ptr, ptr, ptr, ptr, ptr, ptr, ptr, ptr, ptr, ptr, ptr, ptr, ptr, ptr, ptr, ptr, ptr, ptr, ptr, ptr, ptr, ptr, ptr, ptr, ptr, ptr, ptr, ptr, ptr, ptr, ptr, ptr, ptr, ptr, ptr, ptr, ptr, ptr, ptr, ptr, ptr, ptr, ptr, ptr, ptr, ptr, ptr, ptr, ptr, ptr, ptr, ptr, ptr, ptr, ptr, ptr, ptr, ptr, ptr, ptr, ptr, ptr, ptr, ptr, ptr, ptr, ptr, ptr, ptr, ptr, ptr, ptr, ptr, ptr, ptr, ptr, ptr, ptr, ptr, ptr, ptr, ptr, ptr, ptr, ptr, ptr, ptr, ptr, ptr, ptr, ptr, ptr, ptr, ptr, ptr, ptr, ptr, ptr, ptr, ptr, ptr, ptr, ptr, ptr, ptr, ptr, ptr, ptr, ptr, ptr, ptr, ptr, ptr, ptr, ptr, ptr, ptr, ptr, ptr, ptr, ptr, ptr, ptr, ptr, ptr, ptr, ptr, ptr, ptr, ptr, ptr, ptr, ptr, ptr, ptr, ptr, ptr, ptr, ptr, ptr, ptr, ptr, ptr, ptr, ptr, ptr, ptr, ptr, ptr, ptr, ptr, ptr, ptr, ptr, ptr, ptr, ptr, ptr, ptr, ptr, ptr, ptr, ptr, ptr, ptr, ptr, ptr, ptr, ptr, ptr, ptr, ptr, ptr, ptr, ptr, ptr, ptr, ptr, ptr, ptr, ptr, ptr, ptr, ptr, ptr, ptr, ptr, ptr, ptr, ptr, ptr, ptr, ptr, ptr, ptr, ptr, ptr, ptr, ptr, ptr, ptr, ptr, ptr, ptr, ptr, ptr, ptr, ptr, ptr, ptr, ptr, ptr, ptr, ptr, ptr, ptr, ptr, ptr, ptr, ptr, ptr, ptr, ptr, ptr, ptr, ptr, ptr, ptr, ptr, ptr, ptr, ptr, ptr, ptr, ptr, ptr, ptr, ptr, ptr, ptr, ptr, ptr, ptr }
%struct._PyOnceFlag = type { i8 }
%struct.anon.4 = type { i32, i32 }

; Function Attrs: alwaysinline nounwind uwtable
define internal void @Py_INCREF(ptr noundef %0) #2 {
  %2 = alloca ptr, align 8
  %3 = alloca i32, align 4
  %4 = alloca i32, align 4
  store ptr %0, ptr %2, align 8, !tbaa !13
  call void @llvm.lifetime.start.p0(i64 4, ptr %3) #8
  %5 = load ptr, ptr %2, align 8, !tbaa !13
  %6 = getelementptr inbounds nuw %struct._object, ptr %5, i32 0, i32 0
  %7 = getelementptr inbounds nuw %struct.anon.4, ptr %6, i32 0, i32 0
  %8 = load i32, ptr %7, align 8, !tbaa !21
  store i32 %8, ptr %3, align 4, !tbaa !38
  %9 = load i32, ptr %3, align 4, !tbaa !38
  %10 = icmp slt i32 %9, 0
  br i1 %10, label %11, label %12

11:                                               ; preds = %1
  store i32 1, ptr %4, align 4
  br label %18

12:                                               ; preds = %1
  %13 = load i32, ptr %3, align 4, !tbaa !38
  %14 = add i32 %13, 1
  %15 = load ptr, ptr %2, align 8, !tbaa !13
  %16 = getelementptr inbounds nuw %struct._object, ptr %15, i32 0, i32 0
  %17 = getelementptr inbounds nuw %struct.anon.4, ptr %16, i32 0, i32 0
  store i32 %14, ptr %17, align 8, !tbaa !21
  store i32 0, ptr %4, align 4
  br label %18

18:                                               ; preds = %12, %11
  call void @llvm.lifetime.end.p0(i64 4, ptr %3) #8
  %19 = load i32, ptr %4, align 4
  switch i32 %19, label %21 [
    i32 0, label %20
    i32 1, label %20
  ]

20:                                               ; preds = %18, %18
  ret void

21:                                               ; preds = %18
  unreachable
}

; Function Attrs: inlinehint nounwind uwtable
define internal ptr @_Py_NewRef(ptr noundef %0) #6 {
  %2 = alloca ptr, align 8
  store ptr %0, ptr %2, align 8, !tbaa !13
  %3 = load ptr, ptr %2, align 8, !tbaa !13
  call void @Py_INCREF(ptr noundef %3)
  %4 = load ptr, ptr %2, align 8, !tbaa !13
  ret ptr %4
}

; Function Attrs: nounwind uwtable
define internal ptr @ast2obj_unaryop(ptr noundef %0, ptr noundef %1, i32 noundef %2) #0 {
  %4 = alloca ptr, align 8
  %5 = alloca ptr, align 8
  %6 = alloca ptr, align 8
  %7 = alloca i32, align 4
  store ptr %0, ptr %5, align 8, !tbaa !9
  store ptr %1, ptr %6, align 8, !tbaa !147
  store i32 %2, ptr %7, align 4, !tbaa !38
  %8 = load i32, ptr %7, align 4, !tbaa !38
  switch i32 %8, label %29 [
    i32 1, label %9
    i32 2, label %14
    i32 3, label %19
    i32 4, label %24
  ]

9:                                                ; preds = %3
  %10 = load ptr, ptr %5, align 8, !tbaa !9
  %11 = getelementptr inbounds nuw %struct.ast_state, ptr %10, i32 0, i32 61
  %12 = load ptr, ptr %11, align 8, !tbaa !326
  %13 = call ptr @_Py_NewRef(ptr noundef %12)
  store ptr %13, ptr %4, align 8
  br label %30

14:                                               ; preds = %3
  %15 = load ptr, ptr %5, align 8, !tbaa !9
  %16 = getelementptr inbounds nuw %struct.ast_state, ptr %15, i32 0, i32 102
  %17 = load ptr, ptr %16, align 8, !tbaa !327
  %18 = call ptr @_Py_NewRef(ptr noundef %17)
  store ptr %18, ptr %4, align 8
  br label %30

19:                                               ; preds = %3
  %20 = load ptr, ptr %5, align 8, !tbaa !9
  %21 = getelementptr inbounds nuw %struct.ast_state, ptr %20, i32 0, i32 130
  %22 = load ptr, ptr %21, align 8, !tbaa !328
  %23 = call ptr @_Py_NewRef(ptr noundef %22)
  store ptr %23, ptr %4, align 8
  br label %30

24:                                               ; preds = %3
  %25 = load ptr, ptr %5, align 8, !tbaa !9
  %26 = getelementptr inbounds nuw %struct.ast_state, ptr %25, i32 0, i32 132
  %27 = load ptr, ptr %26, align 8, !tbaa !329
  %28 = call ptr @_Py_NewRef(ptr noundef %27)
  store ptr %28, ptr %4, align 8
  br label %30

29:                                               ; preds = %3
  unreachable

30:                                               ; preds = %24, %19, %14, %9
  %31 = load ptr, ptr %4, align 8
  ret ptr %31
}