; Function Attrs: mustprogress nofree norecurse nosync nounwind willreturn memory(readwrite, inaccessiblemem: none) uwtable
define internal fastcc noundef ptr @ast2obj_unaryop(ptr noundef readonly captures(none) %0, i32 noundef %1) unnamed_addr #6 {
  switch i32 %1, label %23 [
    i32 1, label %3
    i32 2, label %8
    i32 3, label %13
    i32 4, label %18
  ]

3:                                                ; preds = %2
  %4 = getelementptr inbounds nuw i8, ptr %0, i64 480
  %5 = load ptr, ptr %4, align 8, !tbaa !371
  %6 = load i32, ptr %5, align 8, !tbaa !9
  %7 = icmp slt i32 %6, 0
  br i1 %7, label %_Py_NewRef.exit, label %_Py_NewRef.exit.sink.split

8:                                                ; preds = %2
  %9 = getelementptr inbounds nuw i8, ptr %0, i64 808
  %10 = load ptr, ptr %9, align 8, !tbaa !372
  %11 = load i32, ptr %10, align 8, !tbaa !9
  %12 = icmp slt i32 %11, 0
  br i1 %12, label %_Py_NewRef.exit, label %_Py_NewRef.exit.sink.split

13:                                               ; preds = %2
  %14 = getelementptr inbounds nuw i8, ptr %0, i64 1032
  %15 = load ptr, ptr %14, align 8, !tbaa !373
  %16 = load i32, ptr %15, align 8, !tbaa !9
  %17 = icmp slt i32 %16, 0
  br i1 %17, label %_Py_NewRef.exit, label %_Py_NewRef.exit.sink.split

18:                                               ; preds = %2
  %19 = getelementptr inbounds nuw i8, ptr %0, i64 1048
  %20 = load ptr, ptr %19, align 8, !tbaa !374
  %21 = load i32, ptr %20, align 8, !tbaa !9
  %22 = icmp slt i32 %21, 0
  br i1 %22, label %_Py_NewRef.exit, label %_Py_NewRef.exit.sink.split

23:                                               ; preds = %2
  unreachable

_Py_NewRef.exit.sink.split:                       ; preds = %18, %13, %8, %3
  %.sink2 = phi i32 [ %6, %3 ], [ %11, %8 ], [ %16, %13 ], [ %21, %18 ]
  %.sink1 = phi ptr [ %5, %3 ], [ %10, %8 ], [ %15, %13 ], [ %20, %18 ]
  %24 = add nuw i32 %.sink2, 1
  store i32 %24, ptr %.sink1, align 8, !tbaa !9
  br label %_Py_NewRef.exit

_Py_NewRef.exit:                                  ; preds = %_Py_NewRef.exit.sink.split, %18, %13, %8, %3
  %.0 = phi ptr [ %5, %3 ], [ %10, %8 ], [ %15, %13 ], [ %20, %18 ], [ %.sink1, %_Py_NewRef.exit.sink.split ]
  ret ptr %.0
}